target datalayout = "e-m:e-p270:32:32-p271:32:32-p272:64:64-i64:64-i128:128-f80:128-n8:16:32:64-S128"
target triple = "x86_64-unknown-linux-gnu"

%"struct.ClipperLib::IntPoint" = type { i64, i64 }
%"struct.ClipperLib::OutPt" = type { i32, %"struct.ClipperLib::IntPoint", ptr, ptr }

; Function Attrs: mustprogress nounwind uwtable
define hidden void @_ZN10ClipperLib18ReversePolyPtLinksEPNS_5OutPtE(ptr noundef %pp) #1 {
entry:
  %pp.addr = alloca ptr, align 8
  %pp1 = alloca ptr, align 8
  %pp2 = alloca ptr, align 8
  store ptr %pp, ptr %pp.addr, align 8
  %0 = load ptr, ptr %pp.addr, align 8
  %tobool = icmp ne ptr %0, null
  br i1 %tobool, label %if.end, label %if.then

if.then:                                          ; preds = %entry
  br label %do.end

if.end:                                           ; preds = %entry
  %1 = load ptr, ptr %pp.addr, align 8
  store ptr %1, ptr %pp1, align 8
  br label %do.body

do.body:                                          ; preds = %do.cond, %if.end
  %2 = load ptr, ptr %pp1, align 8
  %Next = getelementptr inbounds %"struct.ClipperLib::OutPt", ptr %2, i32 0, i32 2
  %3 = load ptr, ptr %Next, align 8
  store ptr %3, ptr %pp2, align 8
  %4 = load ptr, ptr %pp1, align 8
  %Prev = getelementptr inbounds %"struct.ClipperLib::OutPt", ptr %4, i32 0, i32 3
  %5 = load ptr, ptr %Prev, align 8
  %6 = load ptr, ptr %pp1, align 8
  %Next1 = getelementptr inbounds %"struct.ClipperLib::OutPt", ptr %6, i32 0, i32 2
  store ptr %5, ptr %Next1, align 8
  %7 = load ptr, ptr %pp2, align 8
  %8 = load ptr, ptr %pp1, align 8
  %Prev2 = getelementptr inbounds %"struct.ClipperLib::OutPt", ptr %8, i32 0, i32 3
  store ptr %7, ptr %Prev2, align 8
  %9 = load ptr, ptr %pp2, align 8
  store ptr %9, ptr %pp1, align 8
  br label %do.cond

do.cond:                                          ; preds = %do.body
  %10 = load ptr, ptr %pp1, align 8
  %11 = load ptr, ptr %pp.addr, align 8
  %cmp = icmp ne ptr %10, %11
  br i1 %cmp, label %do.body, label %do.end, !llvm.loop !13

do.end:                                           ; preds = %do.cond, %if.then
  ret void
}