; Function Attrs: mustprogress nofree norecurse nosync nounwind memory(readwrite, inaccessiblemem: none) uwtable
define hidden void @_ZN10ClipperLib18ReversePolyPtLinksEPNS_5OutPtE(ptr noundef %pp) local_unnamed_addr #8 {
entry:
  %tobool.not = icmp eq ptr %pp, null
  br i1 %tobool.not, label %do.end, label %do.body

do.body:                                          ; preds = %entry, %do.body
  %pp1.0 = phi ptr [ %0, %do.body ], [ %pp, %entry ]
  %Next = getelementptr inbounds i8, ptr %pp1.0, i64 24
  %0 = load ptr, ptr %Next, align 8
  %Prev = getelementptr inbounds i8, ptr %pp1.0, i64 32
  %1 = load ptr, ptr %Prev, align 8
  store ptr %1, ptr %Next, align 8
  store ptr %0, ptr %Prev, align 8
  %cmp.not = icmp eq ptr %0, %pp
  br i1 %cmp.not, label %do.end, label %do.body, !llvm.loop !14

do.end:                                           ; preds = %do.body, %entry
  ret void
}